target datalayout = "e-m:e-p270:32:32-p271:32:32-p272:64:64-i64:64-i128:128-f80:128-n8:16:32:64-S128"
target triple = "x86_64-pc-linux-gnu"

%struct.Abc_Frame_t_ = type { ptr, ptr, ptr, ptr, ptr, ptr, ptr, ptr, ptr, ptr, i32, i32, i32, i32, i32, ptr, float, float, i32, i32, ptr, ptr, ptr, double, double, ptr, ptr, ptr, ptr, ptr, ptr, ptr, ptr, ptr, ptr, ptr, ptr, float, ptr, i32, ptr, ptr, ptr, ptr, ptr, i32, i32, i32, i32, i32, i32, ptr, ptr, ptr, ptr, ptr, ptr, i32, i32, ptr, ptr, ptr, ptr, ptr, ptr, ptr, ptr, ptr, ptr, ptr, ptr, ptr, ptr, ptr, ptr, ptr, ptr, ptr, ptr, ptr, ptr, ptr, ptr, ptr, ptr, ptr, ptr, ptr, ptr }

@.str.41 = private unnamed_addr constant [4 x i8] c"yes\00", align 1
@.str.42 = private unnamed_addr constant [3 x i8] c"no\00", align 1
@.str.45 = private unnamed_addr constant [62 x i8] c"\09-v     : toggle printing verbose information [default = %s]\0A\00", align 1
@.str.46 = private unnamed_addr constant [35 x i8] c"\09-h     : print the command usage\0A\00", align 1
@.str.162 = private unnamed_addr constant [3 x i8] c"vh\00", align 1
@.str.186 = private unnamed_addr constant [49 x i8] c"Abc_CommandInvPs(): Invariant is not available.\0A\00", align 1
@.str.189 = private unnamed_addr constant [75 x i8] c"\09         (in the case of 'sat' or 'undecided', inifity clauses are used)\0A\00", align 1
@.str.190 = private unnamed_addr constant [24 x i8] c"usage: inv_print [-vh]\0A\00", align 1
@.str.191 = private unnamed_addr constant [50 x i8] c"\09         prints the current inductive invariant\0A\00", align 1

; Function Attrs: inlinehint nounwind uwtable
define internal ptr @Wlc_AbcGetInv(ptr noundef %0) #2 {
  %2 = alloca ptr, align 8
  store ptr %0, ptr %2, align 8, !tbaa !3
  %3 = load ptr, ptr %2, align 8, !tbaa !3
  %4 = getelementptr inbounds nuw %struct.Abc_Frame_t_, ptr %3, i32 0, i32 72
  %5 = load ptr, ptr %4, align 8, !tbaa !146
  ret ptr %5
}

; Function Attrs: nounwind uwtable
define internal i32 @Abc_CommandInvPrint(ptr noundef %0, i32 noundef %1, ptr noundef %2) #0 {
  %4 = alloca i32, align 4
  %5 = alloca ptr, align 8
  %6 = alloca i32, align 4
  %7 = alloca ptr, align 8
  %8 = alloca i32, align 4
  %9 = alloca i32, align 4
  %10 = alloca i32, align 4
  store ptr %0, ptr %5, align 8, !tbaa !3
  store i32 %1, ptr %6, align 4, !tbaa !8
  store ptr %2, ptr %7, align 8, !tbaa !10
  call void @llvm.lifetime.start.p0(i64 4, ptr %8) #12
  call void @llvm.lifetime.start.p0(i64 4, ptr %9) #12
  store i32 0, ptr %9, align 4, !tbaa !8
  call void (...) @Extra_UtilGetoptReset()
  br label %11

11:                                               ; preds = %23, %3
  %12 = load i32, ptr %6, align 4, !tbaa !8
  %13 = load ptr, ptr %7, align 8, !tbaa !10
  %14 = call i32 @Extra_UtilGetopt(i32 noundef %12, ptr noundef %13, ptr noundef @.str.162)
  store i32 %14, ptr %8, align 4, !tbaa !8
  %15 = icmp ne i32 %14, -1
  br i1 %15, label %16, label %24

16:                                               ; preds = %11
  %17 = load i32, ptr %8, align 4, !tbaa !8
  switch i32 %17, label %22 [
    i32 118, label %18
    i32 104, label %21
  ]

18:                                               ; preds = %16
  %19 = load i32, ptr %9, align 4, !tbaa !8
  %20 = xor i32 %19, 1
  store i32 %20, ptr %9, align 4, !tbaa !8
  br label %23

21:                                               ; preds = %16
  br label %33

22:                                               ; preds = %16
  br label %33

23:                                               ; preds = %18
  br label %11, !llvm.loop !123

24:                                               ; preds = %11
  %25 = load ptr, ptr %5, align 8, !tbaa !3
  %26 = call ptr @Wlc_AbcGetInv(ptr noundef %25)
  %27 = icmp eq ptr %26, null
  br i1 %27, label %28, label %29

28:                                               ; preds = %24
  call void (i32, ptr, ...) @Abc_Print(i32 noundef 1, ptr noundef @.str.186)
  store i32 0, ptr %4, align 4
  store i32 1, ptr %10, align 4
  br label %37

29:                                               ; preds = %24
  %30 = load ptr, ptr %5, align 8, !tbaa !3
  %31 = call ptr @Wlc_AbcGetInv(ptr noundef %30)
  %32 = load i32, ptr %9, align 4, !tbaa !8
  call void @Pdr_InvPrint(ptr noundef %31, i32 noundef %32)
  store i32 0, ptr %4, align 4
  store i32 1, ptr %10, align 4
  br label %37

33:                                               ; preds = %22, %21
  call void (i32, ptr, ...) @Abc_Print(i32 noundef -2, ptr noundef @.str.190)
  call void (i32, ptr, ...) @Abc_Print(i32 noundef -2, ptr noundef @.str.191)
  call void (i32, ptr, ...) @Abc_Print(i32 noundef -2, ptr noundef @.str.189)
  %34 = load i32, ptr %9, align 4, !tbaa !8
  %35 = icmp ne i32 %34, 0
  %36 = select i1 %35, ptr @.str.41, ptr @.str.42
  call void (i32, ptr, ...) @Abc_Print(i32 noundef -2, ptr noundef @.str.45, ptr noundef %36)
  call void (i32, ptr, ...) @Abc_Print(i32 noundef -2, ptr noundef @.str.46)
  store i32 1, ptr %4, align 4
  store i32 1, ptr %10, align 4
  br label %37

37:                                               ; preds = %33, %29, %28
  call void @llvm.lifetime.end.p0(i64 4, ptr %9) #12
  call void @llvm.lifetime.end.p0(i64 4, ptr %8) #12
  %38 = load i32, ptr %4, align 4
  ret i32 %38
}