; Function Attrs: nounwind uwtable
define internal range(i32 0, 2) i32 @Abc_CommandInvPrint(ptr noundef readonly captures(none) %0, i32 noundef %1, ptr noundef %2) #0 {
  tail call void (...) @Extra_UtilGetoptReset() #17
  br label %4

4:                                                ; preds = %6, %3
  %.0 = phi i32 [ 0, %3 ], [ %7, %6 ]
  %5 = tail call i32 @Extra_UtilGetopt(i32 noundef %1, ptr noundef %2, ptr noundef nonnull @.str.162) #17
  switch i32 %5, label %13 [
    i32 -1, label %8
    i32 118, label %6
  ]

6:                                                ; preds = %4
  %7 = xor i32 %.0, 1
  br label %4, !llvm.loop !110

8:                                                ; preds = %4
  %9 = getelementptr i8, ptr %0, i64 512
  %.val = load ptr, ptr %9, align 8, !tbaa !109
  %10 = icmp eq ptr %.val, null
  br i1 %10, label %11, label %12

11:                                               ; preds = %8
  tail call void (i32, ptr, ...) @Abc_Print(i32 noundef 1, ptr noundef nonnull @.str.186)
  br label %15

12:                                               ; preds = %8
  tail call void @Pdr_InvPrint(ptr noundef nonnull %.val, i32 noundef %.0) #17
  br label %15

13:                                               ; preds = %4
  tail call void (i32, ptr, ...) @Abc_Print(i32 noundef -2, ptr noundef nonnull @.str.190)
  tail call void (i32, ptr, ...) @Abc_Print(i32 noundef -2, ptr noundef nonnull @.str.191)
  tail call void (i32, ptr, ...) @Abc_Print(i32 noundef -2, ptr noundef nonnull @.str.189)
  %.not10 = icmp eq i32 %.0, 0
  %14 = select i1 %.not10, ptr @.str.42, ptr @.str.41
  tail call void (i32, ptr, ...) @Abc_Print(i32 noundef -2, ptr noundef nonnull @.str.45, ptr noundef nonnull %14)
  tail call void (i32, ptr, ...) @Abc_Print(i32 noundef -2, ptr noundef nonnull @.str.46)
  br label %15

15:                                               ; preds = %13, %12, %11
  %.08 = phi i32 [ 1, %13 ], [ 0, %11 ], [ 0, %12 ]
  ret i32 %.08
}